; Function Attrs: mustprogress uwtable
define void @_ZN13duckdb_apache6thrift9transport13TMemoryBuffer10wroteBytesEj(ptr noundef nonnull align 8 captures(none) dereferenceable(57) %0, i32 noundef %1) local_unnamed_addr #4 align 2 personality ptr @__gxx_personality_v0 {
  %3 = alloca %"class.std::__cxx11::basic_string", align 8
  %4 = alloca %"class.std::allocator", align 1
  %5 = getelementptr inbounds nuw i8, ptr %0, i64 32
  %6 = load ptr, ptr %5, align 8, !tbaa !25
  %7 = getelementptr inbounds nuw i8, ptr %0, i64 24
  %8 = load ptr, ptr %7, align 8, !tbaa !3
  %9 = ptrtoint ptr %6 to i64
  %10 = ptrtoint ptr %8 to i64
  %11 = sub i64 %9, %10
  %12 = trunc i64 %11 to i32
  %13 = icmp ugt i32 %1, %12
  br i1 %13, label %14, label %29

14:                                               ; preds = %2
  %15 = tail call ptr @__cxa_allocate_exception(i64 48) #16
  call void @llvm.lifetime.start.p0(i64 32, ptr nonnull %3) #16
  call void @llvm.lifetime.start.p0(i64 1, ptr nonnull %4) #16
  invoke void @_ZNSt7__cxx1112basic_stringIcSt11char_traitsIcESaIcEEC2EPKcRKS3_(ptr noundef nonnull align 8 dereferenceable(32) %3, ptr noundef nonnull @.str.2, ptr noundef nonnull align 1 dereferenceable(1) %4)
          to label %16 unwind label %_ZNSt7__cxx1112basic_stringIcSt11char_traitsIcESaIcEED2Ev.exit.thread

16:                                               ; preds = %14
  invoke void @_ZN13duckdb_apache6thrift9transport19TTransportExceptionC2ERKNSt7__cxx1112basic_stringIcSt11char_traitsIcESaIcEEE(ptr noundef nonnull align 8 dereferenceable(44) %15, ptr noundef nonnull align 8 dereferenceable(32) %3)
          to label %17 unwind label %19

17:                                               ; preds = %16
  invoke void @__cxa_throw(ptr nonnull %15, ptr nonnull @_ZTIN13duckdb_apache6thrift9transport19TTransportExceptionE, ptr nonnull @_ZN13duckdb_apache6thrift10TExceptionD2Ev) #15
          to label %32 unwind label %19

_ZNSt7__cxx1112basic_stringIcSt11char_traitsIcESaIcEED2Ev.exit.thread: ; preds = %14
  %18 = landingpad { ptr, i32 }
          cleanup
  call void @llvm.lifetime.end.p0(i64 1, ptr nonnull %4) #16
  call void @llvm.lifetime.end.p0(i64 32, ptr nonnull %3) #16
  br label %27

19:                                               ; preds = %17, %16
  %.0 = phi i1 [ false, %17 ], [ true, %16 ]
  %20 = landingpad { ptr, i32 }
          cleanup
  %21 = load ptr, ptr %3, align 8, !tbaa !29
  %22 = getelementptr inbounds nuw i8, ptr %3, i64 16
  %23 = icmp eq ptr %21, %22
  br i1 %23, label %_ZNKSt7__cxx1112basic_stringIcSt11char_traitsIcESaIcEE11_M_is_localEv.exit.thread.i.i, label %_ZNSt7__cxx1112basic_stringIcSt11char_traitsIcESaIcEED2Ev.exit

_ZNKSt7__cxx1112basic_stringIcSt11char_traitsIcESaIcEE11_M_is_localEv.exit.thread.i.i: ; preds = %19
  %24 = getelementptr inbounds nuw i8, ptr %3, i64 8
  %25 = load i64, ptr %24, align 8, !tbaa !21
  %26 = icmp ult i64 %25, 16
  call void @llvm.assume(i1 %26)
  call void @llvm.lifetime.end.p0(i64 1, ptr nonnull %4) #16
  call void @llvm.lifetime.end.p0(i64 32, ptr nonnull %3) #16
  br i1 %.0, label %27, label %28

_ZNSt7__cxx1112basic_stringIcSt11char_traitsIcESaIcEED2Ev.exit: ; preds = %19
  call void @_ZdlPv(ptr noundef %21) #17
  call void @llvm.lifetime.end.p0(i64 1, ptr nonnull %4) #16
  call void @llvm.lifetime.end.p0(i64 32, ptr nonnull %3) #16
  br i1 %.0, label %27, label %28

27:                                               ; preds = %_ZNKSt7__cxx1112basic_stringIcSt11char_traitsIcESaIcEE11_M_is_localEv.exit.thread.i.i, %_ZNSt7__cxx1112basic_stringIcSt11char_traitsIcESaIcEED2Ev.exit.thread, %_ZNSt7__cxx1112basic_stringIcSt11char_traitsIcESaIcEED2Ev.exit
  %.pn13 = phi { ptr, i32 } [ %18, %_ZNSt7__cxx1112basic_stringIcSt11char_traitsIcESaIcEED2Ev.exit.thread ], [ %20, %_ZNSt7__cxx1112basic_stringIcSt11char_traitsIcESaIcEED2Ev.exit ], [ %20, %_ZNKSt7__cxx1112basic_stringIcSt11char_traitsIcESaIcEE11_M_is_localEv.exit.thread.i.i ]
  call void @__cxa_free_exception(ptr %15) #16
  br label %28

28:                                               ; preds = %_ZNKSt7__cxx1112basic_stringIcSt11char_traitsIcESaIcEE11_M_is_localEv.exit.thread.i.i, %27, %_ZNSt7__cxx1112basic_stringIcSt11char_traitsIcESaIcEED2Ev.exit
  %.pn12 = phi { ptr, i32 } [ %.pn13, %27 ], [ %20, %_ZNSt7__cxx1112basic_stringIcSt11char_traitsIcESaIcEED2Ev.exit ], [ %20, %_ZNKSt7__cxx1112basic_stringIcSt11char_traitsIcESaIcEE11_M_is_localEv.exit.thread.i.i ]
  resume { ptr, i32 } %.pn12

29:                                               ; preds = %2
  %30 = zext i32 %1 to i64
  %31 = getelementptr inbounds nuw i8, ptr %8, i64 %30
  store ptr %31, ptr %7, align 8, !tbaa !3
  ret void

32:                                               ; preds = %17
  unreachable
}